(dp0
S'users'
p1
(dp2
S'A'
p3
(dp4
S'sups'
p5
(lp6
sS'user_id'
p7
g3
sS'full_name'
p8
g3
sS'friends_list'
p9
(lp10
Vfff
p11
assS'Andreas'
p12
(dp13
S'sups'
p14
(lp15
sS'user_id'
p16
g12
sS'full_name'
p17
S'd'
p18
sS'friends_list'
p19
(lp20
ssS'djreynol'
p21
(dp22
S'sups'
p23
(lp24
sS'user_id'
p25
g21
sS'friends_list'
p26
(lp27
sS'full_name'
p28
S'd'
p29
ssS'ron'
p30
(dp31
S'sups'
p32
(lp33
sS'user_id'
p34
g30
sS'friends_list'
p35
(lp36
sS'full_name'
p37
S'd'
p38
ssS'KushPatel'
p39
(dp40
S'sups'
p41
(lp42
(dp43
S'date'
p44
VThursday, April 2, 2015 at 7:58 PM
p45
sS'sup_id'
p46
V1b93d799-cf0d-4c39-9553-e6bb4f00b9c7
p47
sS'sender_id'
p48
S'( \xcd\xa1\xc2\xb0 \xcd\x9c\xca\x96 \xcd\xa1\xc2\xb0)'
p49
sa(dp50
S'date'
p51
VThursday, April 2, 2015 at 7:58 PM
p52
sS'sup_id'
p53
Vfc81008e-ef6e-4a35-a2f4-e72083ace2bf
p54
sS'sender_id'
p55
S'( \xcd\xa1\xc2\xb0 \xcd\x9c\xca\x96 \xcd\xa1\xc2\xb0)'
p56
sasS'user_id'
p57
g39
sS'friends_list'
p58
(lp59
sS'full_name'
p60
S'Kush Patel'
p61
ssS'elaw'
p62
(dp63
S'sups'
p64
(lp65
sS'user_id'
p66
g62
sS'full_name'
p67
S's'
p68
sS'friends_list'
p69
(lp70
ssS'11Alex11'
p71
(dp72
S'sups'
p73
(lp74
(dp75
S'date'
p76
V2015-03-29T05:35:41.916Z
p77
sS'sup_id'
p78
V49cc5969-1741-498b-a67f-bb7c07b58c06
p79
sS'sender_id'
p80
S'RickySimon'
p81
sa(dp82
S'date'
p83
V2015-03-30T07:11:25.916Z
p84
sS'sup_id'
p85
V88708c6b-b18c-4cfd-a4c3-3d175f009489
p86
sS'sender_id'
p87
S'RickySimon'
p88
sa(dp89
S'date'
p90
V2015-03-30T16:54:00.502Z
p91
sS'sup_id'
p92
Ve1f54077-84d4-48ee-b725-ba417107eb06
p93
sS'sender_id'
p94
S'RickySimon'
p95
sa(dp96
S'date'
p97
V2015-03-30T16:54:23.923Z
p98
sS'sup_id'
p99
V848b7a3b-b3be-4920-86b0-c9ef151c67f1
p100
sS'sender_id'
p101
S'RickySimon'
p102
sasS'user_id'
p103
g71
sS'friends_list'
p104
(lp105
V11Alex11
p106
aVRickySimon
p107
asS'full_name'
p108
S'Alex Could'
p109
ssS'Ricky'
p110
(dp111
S'sups'
p112
(lp113
sS'user_id'
p114
g110
sS'friends_list'
p115
(lp116
sS'full_name'
p117
S'd'
p118
ssS'blah'
p119
(dp120
S'sups'
p121
(lp122
sS'user_id'
p123
g119
sS'full_name'
p124
S'dd'
p125
sS'friends_list'
p126
(lp127
ssS'tasty'
p128
(dp129
S'sups'
p130
(lp131
(dp132
S'date'
p133
V2015-03-31T01:01:44.887Z
p134
sS'sup_id'
p135
Ve2dd5b4c-c64c-41f9-a7f5-b50f1a17d06d
p136
sS'sender_id'
p137
S'RickySimonRektYou'
p138
sa(dp139
S'date'
p140
V2015-03-31T01:01:50.159Z
p141
sS'sup_id'
p142
V6af1aa53-cbf1-448b-bf8b-ac2521f67827
p143
sS'sender_id'
p144
S'RickySimonRektYou'
p145
sa(dp146
S'date'
p147
V2015-03-31T01:02:42.558Z
p148
sS'sup_id'
p149
Ve5555b76-8c81-47f9-b003-bdbe727531d1
p150
sS'sender_id'
p151
S'RickySimonRektYou'
p152
sa(dp153
S'date'
p154
V2015-03-31T01:02:47.440Z
p155
sS'sup_id'
p156
V313056cd-5d86-4c6e-b252-f0070f0116a0
p157
sS'sender_id'
p158
S'RickySimonRektYou'
p159
sa(dp160
S'date'
p161
V2015-03-31T01:03:03.185Z
p162
sS'sup_id'
p163
V259880bf-2697-4443-8635-553cff272a55
p164
sS'sender_id'
p165
S'RickySimonRektYou'
p166
sa(dp167
S'date'
p168
V2015-03-31T01:12:59.787Z
p169
sS'sup_id'
p170
Vec1ee570-44b7-42f0-9e96-59cec04fa60d
p171
sS'sender_id'
p172
S'RickySimonRektYou'
p173
sa(dp174
S'date'
p175
V2015-03-31T01:55:24.022Z
p176
sS'sup_id'
p177
Vbc2e04dc-4a02-460a-b5dc-b7038e6da5fc
p178
sS'sender_id'
p179
S'( \xcd\xa1\xc2\xb0 \xcd\x9c\xca\x96 \xcd\xa1\xc2\xb0)'
p180
sasS'user_id'
p181
g128
sS'full_name'
p182
S'd'
p183
sS'friends_list'
p184
(lp185
ssS'jmeloewe'
p186
(dp187
S'sups'
p188
(lp189
sS'user_id'
p190
g186
sS'friends_list'
p191
(lp192
sS'full_name'
p193
S'd'
p194
ssS'fff'
p195
(dp196
S'sups'
p197
(lp198
(dp199
S'date'
p200
V2015-03-30T21:21:07.508Z
p201
sS'sup_id'
p202
V17bcf31f-39f1-41a3-a7b8-623cc2dde56d
p203
sS'sender_id'
p204
S'RickySimonRektYou'
p205
sa(dp206
S'date'
p207
V2015-03-30T21:28:48.876Z
p208
sS'sup_id'
p209
V5b517147-bb5a-4505-a6ad-0c12f581a790
p210
sS'sender_id'
p211
S'RickySimonRektYou'
p212
sa(dp213
S'date'
p214
V2015-03-31T01:01:44.890Z
p215
sS'sup_id'
p216
V8fd26694-e8cb-442f-8674-ee5a32038c29
p217
sS'sender_id'
p218
S'RickySimonRektYou'
p219
sa(dp220
S'date'
p221
V2015-03-31T01:01:50.160Z
p222
sS'sup_id'
p223
V0750e7ed-b78e-4dfb-9f74-dc32837561a2
p224
sS'sender_id'
p225
S'RickySimonRektYou'
p226
sa(dp227
S'date'
p228
V2015-03-31T01:02:42.559Z
p229
sS'sup_id'
p230
Vff3b57ad-44d5-4d60-aeed-fc052ed507d1
p231
sS'sender_id'
p232
S'RickySimonRektYou'
p233
sa(dp234
S'date'
p235
V2015-03-31T01:02:47.441Z
p236
sS'sup_id'
p237
V0a8069ae-2327-4744-ade2-3ee04b4b0402
p238
sS'sender_id'
p239
S'RickySimonRektYou'
p240
sa(dp241
S'date'
p242
V2015-03-31T01:02:54.983Z
p243
sS'sup_id'
p244
V48227de8-7177-43d2-83ce-610eac68ec9c
p245
sS'sender_id'
p246
S'RickySimonRektYou'
p247
sasS'user_id'
p248
g195
sS'full_name'
p249
S'tr'
p250
sS'friends_list'
p251
(lp252
Vfff
p253
assS'rwang'
p254
(dp255
S'sups'
p256
(lp257
sS'user_id'
p258
g254
sS'friends_list'
p259
(lp260
sS'full_name'
p261
S'd'
p262
ssS'John'
p263
(dp264
S'sups'
p265
(lp266
sS'user_id'
p267
g263
sS'friends_list'
p268
(lp269
sS'full_name'
p270
S'd'
p271
ssS'r86wang'
p272
(dp273
S'sups'
p274
(lp275
sS'user_id'
p276
g272
sS'full_name'
p277
S'd'
p278
sS'friends_list'
p279
(lp280
ssS'RickySimon123@hotmail.com'
p281
(dp282
S'sups'
p283
(lp284
sS'user_id'
p285
g281
sS'friends_list'
p286
(lp287
VRickySimon
p288
aVRickySimon123@hotmail.com
p289
asS'full_name'
p290
S'r'
p291
ssS'jgbrockl'
p292
(dp293
S'sups'
p294
(lp295
sS'user_id'
p296
g292
sS'full_name'
p297
S'd'
p298
sS'friends_list'
p299
(lp300
ssS'mmcwong'
p301
(dp302
S'sups'
p303
(lp304
(dp305
S'date'
p306
V2015-03-31T01:18:08.132Z
p307
sS'sup_id'
p308
V6b1c4b1e-7305-45aa-916d-7b3393c5b6ff
p309
sS'sender_id'
p310
S'( \xcd\xa1\xc2\xb0 \xcd\x9c\xca\x96 \xcd\xa1\xc2\xb0)'
p311
sasS'user_id'
p312
g301
sS'full_name'
p313
S'ddss'
p314
sS'friends_list'
p315
(lp316
ssS'ppkwok'
p317
(dp318
S'sups'
p319
(lp320
sS'user_id'
p321
g317
sS'friends_list'
p322
(lp323
sS'full_name'
p324
S'd'
p325
ssS'F'
p326
(dp327
S'sups'
p328
(lp329
(dp330
S'date'
p331
V2015-03-29T05:35:15.156Z
p332
sS'sup_id'
p333
V4a41b39b-2792-4ce8-aecf-03361b810017
p334
sS'sender_id'
p335
S'RickySimon'
p336
sasS'user_id'
p337
g326
sS'full_name'
p338
S'dd'
p339
sS'friends_list'
p340
(lp341
VRickySimon
p342
aVF
p343
aV11Alex11
p344
aVA
p345
aVG
p346
assS'RickySimonRektYou'
p347
(dp348
S'sups'
p349
(lp350
(dp351
S'date'
p352
V1/4/2015 at 1:16 AM
p353
sS'sup_id'
p354
V6aee4939-c24b-498c-9f74-300d5ad2f9a0
p355
sS'sender_id'
p356
S'RickySimonRektYou'
p357
sa(dp358
S'date'
p359
V1/4/2015 at 1:16 AM
p360
sS'sup_id'
p361
V014cb10e-0e3d-4ee4-a431-ee2c9f68c4da
p362
sS'sender_id'
p363
S'RickySimonRektYou'
p364
sa(dp365
S'date'
p366
VThursday, April 2, 2015 at 11:52 AM
p367
sS'sup_id'
p368
Vd235b149-214d-401b-8ec7-ce698e9dc14d
p369
sS'sender_id'
p370
S'RickySimonRektYou'
p371
sa(dp372
S'date'
p373
VThursday, April 2, 2015 at 7:54 AM
p374
sS'sup_id'
p375
V8cf365d9-9f2a-4ec4-b582-b41b36ea63e0
p376
sS'sender_id'
p377
S'RickySimonRektYou'
p378
sasS'user_id'
p379
g347
sS'friends_list'
p380
(lp381
VRickySimonRektYou
p382
aVRicky
p383
aVRickySimon
p384
aVfff
p385
aVtasty
p386
aVtastyfire
p387
aV1
p388
aVa
p389
aVA
p390
asS'full_name'
p391
S'd'
p392
ssS'ChronosKey'
p393
(dp394
S'sups'
p395
(lp396
sS'user_id'
p397
g393
sS'friends_list'
p398
(lp399
sS'full_name'
p400
S'd'
p401
ssS'1'
p402
(dp403
S'sups'
p404
(lp405
sS'user_id'
p406
g402
sS'friends_list'
p407
(lp408
sS'full_name'
p409
S'd'
p410
ssS'daniel'
p411
(dp412
S'sups'
p413
(lp414
sS'user_id'
p415
g411
sS'friends_list'
p416
(lp417
sS'full_name'
p418
S'dd'
p419
ssS'20465702'
p420
(dp421
S'sups'
p422
(lp423
sS'user_id'
p424
g420
sS'full_name'
p425
S'3'
p426
sS'friends_list'
p427
(lp428
VRickySimonRektYou
p429
assS'20411111'
p430
(dp431
S'sups'
p432
(lp433
sS'user_id'
p434
g430
sS'full_name'
p435
S'd'
p436
sS'friends_list'
p437
(lp438
ssS'test'
p439
(dp440
S'sups'
p441
(lp442
(dp443
S'date'
p444
VMonday, July 27, 2015 at 10:48 PM
p445
sS'sup_id'
p446
Vb71c909c-9c11-4116-9883-55507bbe125e
p447
sS'sender_id'
p448
S'RickySimon'
p449
sasS'user_id'
p450
g439
sS'full_name'
p451
S'r'
p452
sS'friends_list'
p453
(lp454
ssS'esther1'
p455
(dp456
S'sups'
p457
(lp458
sS'user_id'
p459
g455
sS'friends_list'
p460
(lp461
sS'full_name'
p462
S'd'
p463
ssS'jathusan'
p464
(dp465
S'sups'
p466
(lp467
sS'user_id'
p468
g464
sS'friends_list'
p469
(lp470
sS'full_name'
p471
S'd'
p472
ssS'( \xcd\xa1\xc2\xb0 \xcd\x9c\xca\x96 \xcd\xa1\xc2\xb0)'
p473
(dp474
S'sups'
p475
(lp476
sS'user_id'
p477
g473
sS'friends_list'
p478
(lp479
Vtasty
p480
aVAndreas
p481
aVmmcwong
p482
aVmterry
p483
aVron
p484
aVAndreasR
p485
aVAndreasRi
p486
aVKushPatel
p487
asS'full_name'
p488
S'Ricky Simon'
p489
ssS'rgaergarh'
p490
(dp491
S'sups'
p492
(lp493
sS'user_id'
p494
g490
sS'full_name'
p495
S'awrhr'
p496
sS'friends_list'
p497
(lp498
ssS'midnightshades'
p499
(dp500
S'sups'
p501
(lp502
sS'user_id'
p503
g499
sS'full_name'
p504
S'd'
p505
sS'friends_list'
p506
(lp507
ssS'E'
p508
(dp509
S'sups'
p510
(lp511
sS'user_id'
p512
g508
sS'friends_list'
p513
(lp514
sS'full_name'
p515
S'ee'
p516
ssS'G'
p517
(dp518
S'sups'
p519
(lp520
(dp521
S'date'
p522
V2015-03-30T21:21:05.788Z
p523
sS'sup_id'
p524
V3a30027a-b1df-4d22-b888-9a760e17ad74
p525
sS'sender_id'
p526
S'RickySimonRektYou'
p527
sa(dp528
S'date'
p529
V2015-03-30T21:28:49.362Z
p530
sS'sup_id'
p531
V38020577-62eb-4e0b-80c5-7f6e734a4a40
p532
sS'sender_id'
p533
S'RickySimonRektYou'
p534
sasS'user_id'
p535
g517
sS'full_name'
p536
S'Alex Wood'
p537
sS'friends_list'
p538
(lp539
VRickySimon
p540
aV11Alex11
p541
aVfff
p542
aVA
p543
aVR
p544
aVsds
p545
aVsdd
p546
aVGG
p547
aVE
p548
aVG
p549
assS'sds'
p550
(dp551
S'sups'
p552
(lp553
(dp554
S'date'
p555
V2015-03-30T01:21:10.579Z
p556
sS'sup_id'
p557
V8f3c4302-dae7-4491-be52-858d7568b0a6
p558
sS'sender_id'
p559
S'RickySimon'
p560
sa(dp561
S'date'
p562
V2015-03-30T21:21:22.365Z
p563
sS'sup_id'
p564
V342f515c-8733-4a06-b216-a0329864f9ae
p565
sS'sender_id'
p566
S'RickySimonRektYou'
p567
sa(dp568
S'date'
p569
V2015-03-30T21:21:46.907Z
p570
sS'sup_id'
p571
Vee9919ec-fe64-4c8f-8aff-e55a1f1687c1
p572
sS'sender_id'
p573
S'RickySimonRektYou'
p574
sasS'user_id'
p575
g550
sS'full_name'
p576
S'sdd'
p577
sS'friends_list'
p578
(lp579
ssS'RickySimon'
p580
(dp581
S'sups'
p582
(lp583
(dp584
S'date'
p585
VSunday, July 19, 2015 at 4:45 PM
p586
sS'sup_id'
p587
V920e206f-31fd-4710-a921-369991d220e6
p588
sS'sender_id'
p589
S'RickySimon'
p590
sa(dp591
S'date'
p592
VMonday, July 27, 2015 at 10:48 PM
p593
sS'sup_id'
p594
V76898a00-fe0d-4ee8-9be3-9f1f1950e039
p595
sS'sender_id'
p596
S'RickySimon'
p597
sa(dp598
S'date'
p599
VMonday, July 27, 2015 at 10:48 PM
p600
sS'sup_id'
p601
Vda0ce44e-fc2e-4588-9856-110ba911f544
p602
sS'sender_id'
p603
S'RickySimon'
p604
sa(dp605
S'date'
p606
VMonday, July 27, 2015 at 10:48 PM
p607
sS'sup_id'
p608
V81131066-10af-4adf-acca-a5aa5b01a036
p609
sS'sender_id'
p610
S'RickySimon'
p611
sa(dp612
S'date'
p613
VMonday, July 27, 2015 at 10:48 PM
p614
sS'sup_id'
p615
V0c3cfdb0-fc61-4fdf-843f-653534de96a8
p616
sS'sender_id'
p617
S'RickySimon'
p618
sa(dp619
S'date'
p620
VMonday, July 27, 2015 at 10:48 PM
p621
sS'sup_id'
p622
Vca6fce53-7bbc-4135-a164-da6c477359ae
p623
sS'sender_id'
p624
S'RickySimon'
p625
sa(dp626
S'date'
p627
VMonday, July 27, 2015 at 10:53 PM
p628
sS'sup_id'
p629
Va777fef4-9dd4-4263-afea-4cbb9f1f19dd
p630
sS'sender_id'
p631
S'RickySimon'
p632
sa(dp633
S'date'
p634
VMonday, July 27, 2015 at 10:53 PM
p635
sS'sup_id'
p636
V9c98b462-326f-46cc-a663-ee20d4f656de
p637
sS'sender_id'
p638
S'RickySimon'
p639
sa(dp640
S'date'
p641
VMonday, July 27, 2015 at 10:53 PM
p642
sS'sup_id'
p643
V42ea9fbc-d489-4db6-9fba-48bee7a8b3cd
p644
sS'sender_id'
p645
S'RickySimon'
p646
sa(dp647
S'date'
p648
VMonday, July 27, 2015 at 10:53 PM
p649
sS'sup_id'
p650
Vcc1cc777-a232-46e7-8028-20b11342a73a
p651
sS'sender_id'
p652
S'RickySimon'
p653
sa(dp654
S'date'
p655
VMonday, July 27, 2015 at 10:53 PM
p656
sS'sup_id'
p657
V3f3be20c-9a3b-4402-b99d-51d2fbe4f564
p658
sS'sender_id'
p659
S'RickySimon'
p660
sa(dp661
S'date'
p662
VMonday, July 27, 2015 at 10:53 PM
p663
sS'sup_id'
p664
Vd3da794e-5328-45e0-8094-da8478913152
p665
sS'sender_id'
p666
S'RickySimon'
p667
sa(dp668
S'date'
p669
VMonday, July 27, 2015 at 10:53 PM
p670
sS'sup_id'
p671
V08ccfaa6-a2c4-4c11-8045-00c7a90eef30
p672
sS'sender_id'
p673
S'RickySimon'
p674
sa(dp675
S'date'
p676
VMonday, July 27, 2015 at 10:53 PM
p677
sS'sup_id'
p678
Vabea4776-1c50-4d26-be95-08e10665c671
p679
sS'sender_id'
p680
S'RickySimon'
p681
sa(dp682
S'date'
p683
VMonday, July 27, 2015 at 10:53 PM
p684
sS'sup_id'
p685
Vf343f982-88b8-4955-ae41-7ea2a81d25c6
p686
sS'sender_id'
p687
S'RickySimon'
p688
sa(dp689
S'date'
p690
VMonday, July 27, 2015 at 10:53 PM
p691
sS'sup_id'
p692
Ve246238a-e374-47c5-8e3e-8912880f191b
p693
sS'sender_id'
p694
S'RickySimon'
p695
sa(dp696
S'date'
p697
VMonday, July 27, 2015 at 10:53 PM
p698
sS'sup_id'
p699
Ve4ae8571-4770-4518-b17c-b9f691ad87f2
p700
sS'sender_id'
p701
S'RickySimon'
p702
sa(dp703
S'date'
p704
VMonday, July 27, 2015 at 10:53 PM
p705
sS'sup_id'
p706
Vb732ad02-0735-49e1-95c0-d83fd4c9e628
p707
sS'sender_id'
p708
S'RickySimon'
p709
sa(dp710
S'date'
p711
VMonday, July 27, 2015 at 10:53 PM
p712
sS'sup_id'
p713
Vd2491429-f7f8-41c2-b6d8-4073f4657040
p714
sS'sender_id'
p715
S'RickySimon'
p716
sa(dp717
S'date'
p718
VMonday, July 27, 2015 at 10:53 PM
p719
sS'sup_id'
p720
V98fa4935-a24d-4a22-8dff-5255f736d13e
p721
sS'sender_id'
p722
S'RickySimon'
p723
sa(dp724
S'date'
p725
VMonday, July 27, 2015 at 10:53 PM
p726
sS'sup_id'
p727
Va3ee83c0-ff68-44f3-8017-321fe17f0332
p728
sS'sender_id'
p729
S'RickySimon'
p730
sa(dp731
S'date'
p732
VMonday, July 27, 2015 at 10:53 PM
p733
sS'sup_id'
p734
V02752a69-5c15-454e-8c96-72989345bf5a
p735
sS'sender_id'
p736
S'RickySimon'
p737
sasS'user_id'
p738
g580
sS'full_name'
p739
S'Ricky Simon'
p740
sS'friends_list'
p741
(lp742
VRickySimon
p743
aVJohn
p744
assS'nobody'
p745
(dp746
S'sups'
p747
(lp748
sS'user_id'
p749
g745
sS'friends_list'
p750
(lp751
sS'full_name'
p752
S'd'
p753
ssS'GreenGuy'
p754
(dp755
S'sups'
p756
(lp757
sS'user_id'
p758
g754
sS'full_name'
p759
S'Tim'
p760
sS'friends_list'
p761
(lp762
ssS'testname'
p763
(dp764
S'sups'
p765
(lp766
sS'user_id'
p767
g763
sS'friends_list'
p768
(lp769
sS'full_name'
p770
S'd'
p771
ssS'GG'
p772
(dp773
S'sups'
p774
(lp775
sS'user_id'
p776
g772
sS'full_name'
p777
S'ff'
p778
sS'friends_list'
p779
(lp780
ssS'mario'
p781
(dp782
S'sups'
p783
(lp784
sS'user_id'
p785
g781
sS'full_name'
p786
S'd'
p787
sS'friends_list'
p788
(lp789
ssS'R'
p790
(dp791
S'sups'
p792
(lp793
sS'user_id'
p794
g790
sS'full_name'
p795
g790
sS'friends_list'
p796
(lp797
V11Alex11
p798
assS'AndreasR'
p799
(dp800
S'sups'
p801
(lp802
(dp803
S'date'
p804
V31/3/2015 at 10:51 PM
p805
sS'sup_id'
p806
V330181f0-fcb2-493c-945e-42bd343aa339
p807
sS'sender_id'
p808
S'( \xcd\xa1\xc2\xb0 \xcd\x9c\xca\x96 \xcd\xa1\xc2\xb0)'
p809
sa(dp810
S'date'
p811
V31/3/2015 at 10:51 PM
p812
sS'sup_id'
p813
V8f879e7a-3918-48b6-ab57-343cb292bc57
p814
sS'sender_id'
p815
S'( \xcd\xa1\xc2\xb0 \xcd\x9c\xca\x96 \xcd\xa1\xc2\xb0)'
p816
sa(dp817
S'date'
p818
V31/3/2015 at 10:51 PM
p819
sS'sup_id'
p820
V1d62c6ee-0f96-4fb9-91ef-3dc4cf66e4fc
p821
sS'sender_id'
p822
S'( \xcd\xa1\xc2\xb0 \xcd\x9c\xca\x96 \xcd\xa1\xc2\xb0)'
p823
sa(dp824
S'date'
p825
V31/3/2015 at 10:51 PM
p826
sS'sup_id'
p827
Vf5115e53-d7b3-4b57-bc03-89a99144259d
p828
sS'sender_id'
p829
S'( \xcd\xa1\xc2\xb0 \xcd\x9c\xca\x96 \xcd\xa1\xc2\xb0)'
p830
sa(dp831
S'date'
p832
V31/3/2015 at 10:51 PM
p833
sS'sup_id'
p834
Vbe527a4a-296e-410c-8f7e-e783fe4315cf
p835
sS'sender_id'
p836
S'( \xcd\xa1\xc2\xb0 \xcd\x9c\xca\x96 \xcd\xa1\xc2\xb0)'
p837
sa(dp838
S'date'
p839
V31/3/2015 at 10:51 PM
p840
sS'sup_id'
p841
Vd1ca520b-a224-4d14-ae4c-99ef8f4f9875
p842
sS'sender_id'
p843
S'( \xcd\xa1\xc2\xb0 \xcd\x9c\xca\x96 \xcd\xa1\xc2\xb0)'
p844
sa(dp845
S'date'
p846
V31/3/2015 at 10:51 PM
p847
sS'sup_id'
p848
V0bfdc15d-5708-4612-884e-d7ac6c548940
p849
sS'sender_id'
p850
S'( \xcd\xa1\xc2\xb0 \xcd\x9c\xca\x96 \xcd\xa1\xc2\xb0)'
p851
sasS'user_id'
p852
g799
sS'full_name'
p853
S'd'
p854
sS'friends_list'
p855
(lp856
ssS'aaa'
p857
(dp858
S'sups'
p859
(lp860
sS'user_id'
p861
g857
sS'friends_list'
p862
(lp863
sS'full_name'
p864
S'a'
p865
ssS'kuykuyk'
p866
(dp867
S'sups'
p868
(lp869
sS'user_id'
p870
g866
sS'full_name'
p871
S'dd'
p872
sS'friends_list'
p873
(lp874
ssS'mterry'
p875
(dp876
S'sups'
p877
(lp878
sS'user_id'
p879
g875
sS'friends_list'
p880
(lp881
sS'full_name'
p882
S'd'
p883
ssS'a'
p884
(dp885
S'sups'
p886
(lp887
sS'user_id'
p888
g884
sS'full_name'
p889
g884
sS'friends_list'
p890
(lp891
ssS'sdd'
p892
(dp893
S'sups'
p894
(lp895
sS'user_id'
p896
g892
sS'friends_list'
p897
(lp898
sS'full_name'
p899
S'd'
p900
ssS'KJNK'
p901
(dp902
S'sups'
p903
(lp904
sS'user_id'
p905
g901
sS'full_name'
p906
S'dsd'
p907
sS'friends_list'
p908
(lp909
ssS'b'
p910
(dp911
S'sups'
p912
(lp913
sS'user_id'
p914
g910
sS'friends_list'
p915
(lp916
sS'full_name'
p917
S'dsd'
p918
ssS'Roxy'
p919
(dp920
S'sups'
p921
(lp922
sS'user_id'
p923
g919
sS'friends_list'
p924
(lp925
sS'full_name'
p926
S'd'
p927
ssS'd'
p928
(dp929
S'sups'
p930
(lp931
sS'user_id'
p932
g928
sS'full_name'
p933
S'dd'
p934
sS'friends_list'
p935
(lp936
ssS'yukina'
p937
(dp938
S'sups'
p939
(lp940
sS'user_id'
p941
g937
sS'friends_list'
p942
(lp943
sS'full_name'
p944
S'd'
p945
ssS'tastyfire'
p946
(dp947
S'sups'
p948
(lp949
sS'user_id'
p950
g946
sS'friends_list'
p951
(lp952
sS'full_name'
p953
S'd'
p954
ssS'james05'
p955
(dp956
S'sups'
p957
(lp958
sS'user_id'
p959
g955
sS'friends_list'
p960
(lp961
sS'full_name'
p962
S'd'
p963
ssS'q'
p964
(dp965
S'sups'
p966
(lp967
sS'user_id'
p968
g964
sS'full_name'
p969
S'a'
p970
sS'friends_list'
p971
(lp972
ssS's'
p973
(dp974
S'sups'
p975
(lp976
sS'user_id'
p977
g973
sS'full_name'
p978
S'sd'
p979
sS'friends_list'
p980
(lp981
ssS'123'
p982
(dp983
S'sups'
p984
(lp985
sS'user_id'
p986
g982
sS'full_name'
p987
S'd'
p988
sS'friends_list'
p989
(lp990
ssS'AndreasRi'
p991
(dp992
S'sups'
p993
(lp994
(dp995
S'date'
p996
V31/3/2015 at 10:51 PM
p997
sS'sup_id'
p998
V53c79107-406a-466d-b011-203d7c30c8ae
p999
sS'sender_id'
p1000
S'( \xcd\xa1\xc2\xb0 \xcd\x9c\xca\x96 \xcd\xa1\xc2\xb0)'
p1001
sa(dp1002
S'date'
p1003
V31/3/2015 at 10:51 PM
p1004
sS'sup_id'
p1005
V768e8538-846a-4bad-85e9-ca0626c299f2
p1006
sS'sender_id'
p1007
S'( \xcd\xa1\xc2\xb0 \xcd\x9c\xca\x96 \xcd\xa1\xc2\xb0)'
p1008
sa(dp1009
S'date'
p1010
V31/3/2015 at 10:51 PM
p1011
sS'sup_id'
p1012
V1946dff6-f037-4ab4-af51-2aa331ab3765
p1013
sS'sender_id'
p1014
S'( \xcd\xa1\xc2\xb0 \xcd\x9c\xca\x96 \xcd\xa1\xc2\xb0)'
p1015
sa(dp1016
S'date'
p1017
V31/3/2015 at 10:51 PM
p1018
sS'sup_id'
p1019
V2994550b-39ff-4d1c-9b72-4ebe6a4656eb
p1020
sS'sender_id'
p1021
S'( \xcd\xa1\xc2\xb0 \xcd\x9c\xca\x96 \xcd\xa1\xc2\xb0)'
p1022
sa(dp1023
S'date'
p1024
V31/3/2015 at 10:51 PM
p1025
sS'sup_id'
p1026
V784f38c7-d8e1-475d-840c-4df6f208113c
p1027
sS'sender_id'
p1028
S'( \xcd\xa1\xc2\xb0 \xcd\x9c\xca\x96 \xcd\xa1\xc2\xb0)'
p1029
sa(dp1030
S'date'
p1031
V31/3/2015 at 10:51 PM
p1032
sS'sup_id'
p1033
V947613c4-8b6b-4b17-b545-d872a8cf0046
p1034
sS'sender_id'
p1035
S'( \xcd\xa1\xc2\xb0 \xcd\x9c\xca\x96 \xcd\xa1\xc2\xb0)'
p1036
sa(dp1037
S'date'
p1038
V31/3/2015 at 10:51 PM
p1039
sS'sup_id'
p1040
Vc0561366-4a1e-4c3e-91b3-413bcda6a32a
p1041
sS'sender_id'
p1042
S'( \xcd\xa1\xc2\xb0 \xcd\x9c\xca\x96 \xcd\xa1\xc2\xb0)'
p1043
sasS'user_id'
p1044
g991
sS'full_name'
p1045
S'd'
p1046
sS'friends_list'
p1047
(lp1048
ssS'Farnsworth'
p1049
(dp1050
S'sups'
p1051
(lp1052
sS'user_id'
p1053
g1049
sS'full_name'
p1054
S'd'
p1055
sS'friends_list'
p1056
(lp1057
sss.